target datalayout = "e-m:e-p270:32:32-p271:32:32-p272:64:64-i64:64-i128:128-f80:128-n8:16:32:64-S128"
target triple = "x86_64-pc-linux-gnu"

%"class.cvc5::internal::Integer" = type { %class.__gmp_expr }
%class.__gmp_expr = type { [1 x %struct.__mpz_struct] }
%struct.__mpz_struct = type { i32, i32, ptr }
%"class.cvc5::internal::Rational" = type { %class.__gmp_expr.0 }
%class.__gmp_expr.0 = type { [1 x %struct.__mpq_struct] }
%struct.__mpq_struct = type { %struct.__mpz_struct, %struct.__mpz_struct }
%"class.std::__cxx11::basic_string" = type { %"struct.std::__cxx11::basic_string<char>::_Alloc_hider", i64, %union.anon }
%"struct.std::__cxx11::basic_string<char>::_Alloc_hider" = type { ptr }
%union.anon = type { i64, [8 x i8] }
%"class.std::ios_base" = type { ptr, i64, i64, i32, i32, i32, ptr, %"struct.std::ios_base::_Words", [8 x %"struct.std::ios_base::_Words"], i32, ptr, %"class.std::locale" }
%"struct.std::ios_base::_Words" = type { ptr, i64 }
%"class.std::locale" = type { ptr }

@.str = private unnamed_addr constant [5 x i8] c"true\00", align 1
@.str.1 = private unnamed_addr constant [6 x i8] c"false\00", align 1
@_ZTISt16invalid_argument = external constant ptr
@.str.2 = private unnamed_addr constant [2 x i8] c"\22\00", align 1

; Function Attrs: inlinehint mustprogress nounwind uwtable
define linkonce_odr noundef i32 @_ZStorSt12_Ios_IostateS_(i32 noundef %0, i32 noundef %1) #5 comdat {
  %3 = alloca i32, align 4
  %4 = alloca i32, align 4
  store i32 %0, ptr %3, align 4, !tbaa !33
  store i32 %1, ptr %4, align 4, !tbaa !33
  %5 = load i32, ptr %3, align 4, !tbaa !33
  %6 = load i32, ptr %4, align 4, !tbaa !33
  %7 = or i32 %5, %6
  ret i32 %7
}

; Function Attrs: mustprogress nounwind uwtable
define available_externally noundef i32 @_ZNKSt9basic_iosIcSt11char_traitsIcEE7rdstateEv(ptr noundef nonnull align 8 dereferenceable(264) %0) #8 align 2 {
  %2 = alloca ptr, align 8
  store ptr %0, ptr %2, align 8, !tbaa !31
  %3 = load ptr, ptr %2, align 8
  %4 = getelementptr inbounds nuw %"class.std::ios_base", ptr %3, i32 0, i32 5
  %5 = load i32, ptr %4, align 8, !tbaa !35
  ret i32 %5
}

; Function Attrs: mustprogress nounwind uwtable
define available_externally noundef ptr @_ZNKSt7__cxx1112basic_stringIcSt11char_traitsIcESaIcEE7_M_dataEv(ptr noundef nonnull align 8 dereferenceable(32) %0) #8 align 2 {
  %2 = alloca ptr, align 8
  store ptr %0, ptr %2, align 8, !tbaa !8
  %3 = load ptr, ptr %2, align 8
  %4 = getelementptr inbounds nuw %"class.std::__cxx11::basic_string", ptr %3, i32 0, i32 0
  %5 = getelementptr inbounds nuw %"struct.std::__cxx11::basic_string<char>::_Alloc_hider", ptr %4, i32 0, i32 0
  %6 = load ptr, ptr %5, align 8, !tbaa !26
  ret ptr %6
}

; Function Attrs: mustprogress nounwind uwtable
define linkonce_odr hidden noundef i64 @_ZNSt11char_traitsIcE6lengthEPKc(ptr noundef %0) #8 comdat align 2 {
  %2 = alloca ptr, align 8
  store ptr %0, ptr %2, align 8, !tbaa !10
  %3 = load ptr, ptr %2, align 8, !tbaa !10
  %4 = call i64 @strlen(ptr noundef %3) #3
  ret i64 %4
}

; Function Attrs: mustprogress uwtable
define available_externally void @_ZNSt9basic_iosIcSt11char_traitsIcEE8setstateESt12_Ios_Iostate(ptr noundef nonnull align 8 dereferenceable(264) %0, i32 noundef %1) #4 align 2 {
  %3 = alloca ptr, align 8
  %4 = alloca i32, align 4
  store ptr %0, ptr %3, align 8, !tbaa !31
  store i32 %1, ptr %4, align 4, !tbaa !33
  %5 = load ptr, ptr %3, align 8
  %6 = call noundef i32 @_ZNKSt9basic_iosIcSt11char_traitsIcEE7rdstateEv(ptr noundef nonnull align 8 dereferenceable(264) %5)
  %7 = load i32, ptr %4, align 4, !tbaa !33
  %8 = call noundef i32 @_ZStorSt12_Ios_IostateS_(i32 noundef %6, i32 noundef %7)
  call void @_ZNSt9basic_iosIcSt11char_traitsIcEE5clearESt12_Ios_Iostate(ptr noundef nonnull align 8 dereferenceable(264) %5, i32 noundef %8)
  ret void
}

; Function Attrs: mustprogress nounwind uwtable
define linkonce_odr hidden void @_ZN10__gmp_exprIA1_12__mpq_structS1_ED2Ev(ptr noundef nonnull align 8 dereferenceable(32) %0) unnamed_addr #8 comdat align 2 personality ptr @__gxx_personality_v0 {
  %2 = alloca ptr, align 8
  store ptr %0, ptr %2, align 8, !tbaa !24
  %3 = load ptr, ptr %2, align 8
  %4 = getelementptr inbounds nuw %class.__gmp_expr.0, ptr %3, i32 0, i32 0
  %5 = getelementptr inbounds [1 x %struct.__mpq_struct], ptr %4, i64 0, i64 0
  invoke void @__gmpq_clear(ptr noundef %5)
          to label %6 unwind label %7

6:                                                ; preds = %1
  ret void

7:                                                ; preds = %1
  %8 = landingpad { ptr, i32 }
          catch ptr null
  %9 = extractvalue { ptr, i32 } %8, 0
  call void @__clang_call_terminate(ptr %9) #11
  unreachable
}

; Function Attrs: mustprogress nounwind uwtable
define linkonce_odr hidden void @_ZN10__gmp_exprIA1_12__mpz_structS1_ED2Ev(ptr noundef nonnull align 8 dereferenceable(16) %0) unnamed_addr #8 comdat align 2 personality ptr @__gxx_personality_v0 {
  %2 = alloca ptr, align 8
  store ptr %0, ptr %2, align 8, !tbaa !22
  %3 = load ptr, ptr %2, align 8
  %4 = getelementptr inbounds nuw %class.__gmp_expr, ptr %3, i32 0, i32 0
  %5 = getelementptr inbounds [1 x %struct.__mpz_struct], ptr %4, i64 0, i64 0
  invoke void @__gmpz_clear(ptr noundef %5)
          to label %6 unwind label %7

6:                                                ; preds = %1
  ret void

7:                                                ; preds = %1
  %8 = landingpad { ptr, i32 }
          catch ptr null
  %9 = extractvalue { ptr, i32 } %8, 0
  call void @__clang_call_terminate(ptr %9) #11
  unreachable
}

; Function Attrs: mustprogress nounwind uwtable
define available_externally noundef i64 @_ZNKSt7__cxx1112basic_stringIcSt11char_traitsIcESaIcEE4sizeEv(ptr noundef nonnull align 8 dereferenceable(32) %0) #8 align 2 {
  %2 = alloca ptr, align 8
  store ptr %0, ptr %2, align 8, !tbaa !8
  %3 = load ptr, ptr %2, align 8
  %4 = getelementptr inbounds nuw %"class.std::__cxx11::basic_string", ptr %3, i32 0, i32 1
  %5 = load i64, ptr %4, align 8, !tbaa !30
  ret i64 %5
}

; Function Attrs: mustprogress nounwind uwtable
define available_externally noundef ptr @_ZNKSt7__cxx1112basic_stringIcSt11char_traitsIcESaIcEE4dataEv(ptr noundef nonnull align 8 dereferenceable(32) %0) #8 align 2 {
  %2 = alloca ptr, align 8
  store ptr %0, ptr %2, align 8, !tbaa !8
  %3 = load ptr, ptr %2, align 8
  %4 = call noundef ptr @_ZNKSt7__cxx1112basic_stringIcSt11char_traitsIcESaIcEE7_M_dataEv(ptr noundef nonnull align 8 dereferenceable(32) %3)
  ret ptr %4
}

; Function Attrs: inlinehint mustprogress uwtable
define available_externally noundef nonnull align 8 dereferenceable(8) ptr @_ZStlsISt11char_traitsIcEERSt13basic_ostreamIcT_ES5_PKc(ptr noundef nonnull align 8 dereferenceable(8) %0, ptr noundef %1) #6 {
  %3 = alloca ptr, align 8
  %4 = alloca ptr, align 8
  store ptr %0, ptr %3, align 8, !tbaa !3
  store ptr %1, ptr %4, align 8, !tbaa !10
  %5 = load ptr, ptr %4, align 8, !tbaa !10
  %6 = icmp ne ptr %5, null
  br i1 %6, label %13, label %7

7:                                                ; preds = %2
  %8 = load ptr, ptr %3, align 8, !tbaa !3
  %9 = load ptr, ptr %8, align 8, !tbaa !18
  %10 = getelementptr i8, ptr %9, i64 -24
  %11 = load i64, ptr %10, align 8
  %12 = getelementptr inbounds i8, ptr %8, i64 %11
  call void @_ZNSt9basic_iosIcSt11char_traitsIcEE8setstateESt12_Ios_Iostate(ptr noundef nonnull align 8 dereferenceable(264) %12, i32 noundef 1)
  br label %19

13:                                               ; preds = %2
  %14 = load ptr, ptr %3, align 8, !tbaa !3
  %15 = load ptr, ptr %4, align 8, !tbaa !10
  %16 = load ptr, ptr %4, align 8, !tbaa !10
  %17 = call noundef i64 @_ZNSt11char_traitsIcE6lengthEPKc(ptr noundef %16)
  %18 = call noundef nonnull align 8 dereferenceable(8) ptr @_ZSt16__ostream_insertIcSt11char_traitsIcEERSt13basic_ostreamIT_T0_ES6_PKS3_l(ptr noundef nonnull align 8 dereferenceable(8) %14, ptr noundef %15, i64 noundef %17)
  br label %19

19:                                               ; preds = %13, %7
  %20 = load ptr, ptr %3, align 8, !tbaa !3
  ret ptr %20
}

; Function Attrs: mustprogress nounwind uwtable
define linkonce_odr hidden void @_ZN4cvc58internal8RationalD2Ev(ptr noundef nonnull align 8 dereferenceable(32) %0) unnamed_addr #8 comdat align 2 {
  %2 = alloca ptr, align 8
  store ptr %0, ptr %2, align 8, !tbaa !14
  %3 = load ptr, ptr %2, align 8
  %4 = getelementptr inbounds nuw %"class.cvc5::internal::Rational", ptr %3, i32 0, i32 0
  call void @_ZN10__gmp_exprIA1_12__mpq_structS1_ED2Ev(ptr noundef nonnull align 8 dereferenceable(32) %4) #3
  ret void
}

; Function Attrs: mustprogress nounwind uwtable
define linkonce_odr hidden void @_ZN4cvc58internal7IntegerD2Ev(ptr noundef nonnull align 8 dereferenceable(16) %0) unnamed_addr #8 comdat align 2 {
  %2 = alloca ptr, align 8
  store ptr %0, ptr %2, align 8, !tbaa !12
  %3 = load ptr, ptr %2, align 8
  %4 = getelementptr inbounds nuw %"class.cvc5::internal::Integer", ptr %3, i32 0, i32 0
  call void @_ZN10__gmp_exprIA1_12__mpz_structS1_ED2Ev(ptr noundef nonnull align 8 dereferenceable(16) %4) #3
  ret void
}

; Function Attrs: inlinehint mustprogress uwtable
define available_externally noundef nonnull align 8 dereferenceable(8) ptr @_ZStlsIcSt11char_traitsIcESaIcEERSt13basic_ostreamIT_T0_ES7_RKNSt7__cxx1112basic_stringIS4_S5_T1_EE(ptr noundef nonnull align 8 dereferenceable(8) %0, ptr noundef nonnull align 8 dereferenceable(32) %1) #6 {
  %3 = alloca ptr, align 8
  %4 = alloca ptr, align 8
  store ptr %0, ptr %3, align 8, !tbaa !3
  store ptr %1, ptr %4, align 8, !tbaa !8
  %5 = load ptr, ptr %3, align 8, !tbaa !3
  %6 = load ptr, ptr %4, align 8, !tbaa !8
  %7 = call noundef ptr @_ZNKSt7__cxx1112basic_stringIcSt11char_traitsIcESaIcEE4dataEv(ptr noundef nonnull align 8 dereferenceable(32) %6) #3
  %8 = load ptr, ptr %4, align 8, !tbaa !8
  %9 = call noundef i64 @_ZNKSt7__cxx1112basic_stringIcSt11char_traitsIcESaIcEE4sizeEv(ptr noundef nonnull align 8 dereferenceable(32) %8) #3
  %10 = call noundef nonnull align 8 dereferenceable(8) ptr @_ZSt16__ostream_insertIcSt11char_traitsIcEERSt13basic_ostreamIT_T0_ES6_PKS3_l(ptr noundef nonnull align 8 dereferenceable(8) %5, ptr noundef %7, i64 noundef %9)
  ret ptr %10
}

; Function Attrs: inlinehint mustprogress nounwind uwtable
define linkonce_odr noundef zeroext i1 @_ZSteqIcSt11char_traitsIcESaIcEEbRKNSt7__cxx1112basic_stringIT_T0_T1_EEPKS5_(ptr noundef nonnull align 8 dereferenceable(32) %0, ptr noundef %1) #5 comdat {
  %3 = alloca ptr, align 8
  %4 = alloca ptr, align 8
  store ptr %0, ptr %3, align 8, !tbaa !8
  store ptr %1, ptr %4, align 8, !tbaa !10
  %5 = load ptr, ptr %3, align 8, !tbaa !8
  %6 = load ptr, ptr %4, align 8, !tbaa !10
  %7 = call noundef i32 @_ZNKSt7__cxx1112basic_stringIcSt11char_traitsIcESaIcEE7compareEPKc(ptr noundef nonnull align 8 dereferenceable(32) %5, ptr noundef %6) #3
  %8 = icmp eq i32 %7, 0
  ret i1 %8
}

; Function Attrs: mustprogress uwtable
define hidden void @_ZN4cvc58internal7toSExprERSoRKNSt7__cxx1112basic_stringIcSt11char_traitsIcESaIcEEE(ptr noundef nonnull align 8 dereferenceable(8) %0, ptr noundef nonnull align 8 dereferenceable(32) %1) #4 personality ptr @__gxx_personality_v0 {
  %3 = alloca ptr, align 8
  %4 = alloca ptr, align 8
  %5 = alloca %"class.cvc5::internal::Integer", align 8
  %6 = alloca ptr, align 8
  %7 = alloca i32, align 4
  %8 = alloca ptr, align 8
  %9 = alloca %"class.cvc5::internal::Rational", align 8
  %10 = alloca ptr, align 8
  store ptr %0, ptr %3, align 8, !tbaa !3
  store ptr %1, ptr %4, align 8, !tbaa !8
  %11 = load ptr, ptr %4, align 8, !tbaa !8
  %12 = call noundef zeroext i1 @_ZSteqIcSt11char_traitsIcESaIcEEbRKNSt7__cxx1112basic_stringIT_T0_T1_EEPKS5_(ptr noundef nonnull align 8 dereferenceable(32) %11, ptr noundef @.str)
  br i1 %12, label %16, label %13

13:                                               ; preds = %2
  %14 = load ptr, ptr %4, align 8, !tbaa !8
  %15 = call noundef zeroext i1 @_ZSteqIcSt11char_traitsIcESaIcEEbRKNSt7__cxx1112basic_stringIT_T0_T1_EEPKS5_(ptr noundef nonnull align 8 dereferenceable(32) %14, ptr noundef @.str.1)
  br i1 %15, label %16, label %20

16:                                               ; preds = %13, %2
  %17 = load ptr, ptr %3, align 8, !tbaa !3
  %18 = load ptr, ptr %4, align 8, !tbaa !8
  %19 = call noundef nonnull align 8 dereferenceable(8) ptr @_ZStlsIcSt11char_traitsIcESaIcEERSt13basic_ostreamIT_T0_ES7_RKNSt7__cxx1112basic_stringIS4_S5_T1_EE(ptr noundef nonnull align 8 dereferenceable(8) %17, ptr noundef nonnull align 8 dereferenceable(32) %18)
  br label %72

20:                                               ; preds = %13
  call void @llvm.lifetime.start.p0(i64 16, ptr %5) #3
  %21 = load ptr, ptr %4, align 8, !tbaa !8
  invoke void @_ZN4cvc58internal7IntegerC1ERKNSt7__cxx1112basic_stringIcSt11char_traitsIcESaIcEEEj(ptr noundef nonnull align 8 dereferenceable(16) %5, ptr noundef nonnull align 8 dereferenceable(32) %21, i32 noundef 10)
          to label %22 unwind label %27

22:                                               ; preds = %20
  %23 = load ptr, ptr %3, align 8, !tbaa !3
  %24 = load ptr, ptr %4, align 8, !tbaa !8
  %25 = invoke noundef nonnull align 8 dereferenceable(8) ptr @_ZStlsIcSt11char_traitsIcESaIcEERSt13basic_ostreamIT_T0_ES7_RKNSt7__cxx1112basic_stringIS4_S5_T1_EE(ptr noundef nonnull align 8 dereferenceable(8) %23, ptr noundef nonnull align 8 dereferenceable(32) %24)
          to label %26 unwind label %31

26:                                               ; preds = %22
  call void @_ZN4cvc58internal7IntegerD2Ev(ptr noundef nonnull align 8 dereferenceable(16) %5) #3
  call void @llvm.lifetime.end.p0(i64 16, ptr %5) #3
  br label %72

27:                                               ; preds = %20
  %28 = landingpad { ptr, i32 }
          cleanup
          catch ptr @_ZTISt16invalid_argument
  %29 = extractvalue { ptr, i32 } %28, 0
  store ptr %29, ptr %6, align 8
  %30 = extractvalue { ptr, i32 } %28, 1
  store i32 %30, ptr %7, align 4
  br label %35

31:                                               ; preds = %22
  %32 = landingpad { ptr, i32 }
          cleanup
          catch ptr @_ZTISt16invalid_argument
  %33 = extractvalue { ptr, i32 } %32, 0
  store ptr %33, ptr %6, align 8
  %34 = extractvalue { ptr, i32 } %32, 1
  store i32 %34, ptr %7, align 4
  call void @_ZN4cvc58internal7IntegerD2Ev(ptr noundef nonnull align 8 dereferenceable(16) %5) #3
  br label %35

35:                                               ; preds = %31, %27
  call void @llvm.lifetime.end.p0(i64 16, ptr %5) #3
  br label %36

36:                                               ; preds = %35
  %37 = load i32, ptr %7, align 4
  %38 = call i32 @llvm.eh.typeid.for.p0(ptr @_ZTISt16invalid_argument) #3
  %39 = icmp eq i32 %37, %38
  br i1 %39, label %40, label %73

40:                                               ; preds = %36
  call void @llvm.lifetime.start.p0(i64 8, ptr %8) #3
  %41 = load ptr, ptr %6, align 8
  %42 = call ptr @__cxa_begin_catch(ptr %41) #3
  store ptr %42, ptr %8, align 8
  call void @__cxa_end_catch()
  call void @llvm.lifetime.end.p0(i64 8, ptr %8) #3
  br label %43

43:                                               ; preds = %40
  call void @llvm.lifetime.start.p0(i64 32, ptr %9) #3
  %44 = load ptr, ptr %4, align 8, !tbaa !8
  invoke void @_ZN4cvc58internal8RationalC2ERKNSt7__cxx1112basic_stringIcSt11char_traitsIcESaIcEEEj(ptr noundef nonnull align 8 dereferenceable(32) %9, ptr noundef nonnull align 8 dereferenceable(32) %44, i32 noundef 10)
          to label %45 unwind label %50

45:                                               ; preds = %43
  %46 = load ptr, ptr %3, align 8, !tbaa !3
  %47 = load ptr, ptr %4, align 8, !tbaa !8
  %48 = invoke noundef nonnull align 8 dereferenceable(8) ptr @_ZStlsIcSt11char_traitsIcESaIcEERSt13basic_ostreamIT_T0_ES7_RKNSt7__cxx1112basic_stringIS4_S5_T1_EE(ptr noundef nonnull align 8 dereferenceable(8) %46, ptr noundef nonnull align 8 dereferenceable(32) %47)
          to label %49 unwind label %54

49:                                               ; preds = %45
  call void @_ZN4cvc58internal8RationalD2Ev(ptr noundef nonnull align 8 dereferenceable(32) %9) #3
  call void @llvm.lifetime.end.p0(i64 32, ptr %9) #3
  br label %72

50:                                               ; preds = %43
  %51 = landingpad { ptr, i32 }
          cleanup
          catch ptr @_ZTISt16invalid_argument
  %52 = extractvalue { ptr, i32 } %51, 0
  store ptr %52, ptr %6, align 8
  %53 = extractvalue { ptr, i32 } %51, 1
  store i32 %53, ptr %7, align 4
  br label %58

54:                                               ; preds = %45
  %55 = landingpad { ptr, i32 }
          cleanup
          catch ptr @_ZTISt16invalid_argument
  %56 = extractvalue { ptr, i32 } %55, 0
  store ptr %56, ptr %6, align 8
  %57 = extractvalue { ptr, i32 } %55, 1
  store i32 %57, ptr %7, align 4
  call void @_ZN4cvc58internal8RationalD2Ev(ptr noundef nonnull align 8 dereferenceable(32) %9) #3
  br label %58

58:                                               ; preds = %54, %50
  call void @llvm.lifetime.end.p0(i64 32, ptr %9) #3
  br label %59

59:                                               ; preds = %58
  %60 = load i32, ptr %7, align 4
  %61 = call i32 @llvm.eh.typeid.for.p0(ptr @_ZTISt16invalid_argument) #3
  %62 = icmp eq i32 %60, %61
  br i1 %62, label %63, label %73

63:                                               ; preds = %59
  call void @llvm.lifetime.start.p0(i64 8, ptr %10) #3
  %64 = load ptr, ptr %6, align 8
  %65 = call ptr @__cxa_begin_catch(ptr %64) #3
  store ptr %65, ptr %10, align 8
  call void @__cxa_end_catch()
  call void @llvm.lifetime.end.p0(i64 8, ptr %10) #3
  br label %66

66:                                               ; preds = %63
  %67 = load ptr, ptr %3, align 8, !tbaa !3
  %68 = call noundef nonnull align 8 dereferenceable(8) ptr @_ZStlsISt11char_traitsIcEERSt13basic_ostreamIcT_ES5_PKc(ptr noundef nonnull align 8 dereferenceable(8) %67, ptr noundef @.str.2)
  %69 = load ptr, ptr %4, align 8, !tbaa !8
  %70 = call noundef nonnull align 8 dereferenceable(8) ptr @_ZStlsIcSt11char_traitsIcESaIcEERSt13basic_ostreamIT_T0_ES7_RKNSt7__cxx1112basic_stringIS4_S5_T1_EE(ptr noundef nonnull align 8 dereferenceable(8) %68, ptr noundef nonnull align 8 dereferenceable(32) %69)
  %71 = call noundef nonnull align 8 dereferenceable(8) ptr @_ZStlsISt11char_traitsIcEERSt13basic_ostreamIcT_ES5_PKc(ptr noundef nonnull align 8 dereferenceable(8) %70, ptr noundef @.str.2)
  br label %72

72:                                               ; preds = %66, %49, %26, %16
  ret void

73:                                               ; preds = %59, %36
  %74 = load ptr, ptr %6, align 8
  %75 = load i32, ptr %7, align 4
  %76 = insertvalue { ptr, i32 } poison, ptr %74, 0
  %77 = insertvalue { ptr, i32 } %76, i32 %75, 1
  resume { ptr, i32 } %77
}