; Function Attrs: mustprogress uwtable
define hidden void @_ZN4cvc58internal7toSExprERSoRKNSt7__cxx1112basic_stringIcSt11char_traitsIcESaIcEEE(ptr noundef nonnull align 8 dereferenceable(8) %0, ptr noundef nonnull align 8 dereferenceable(32) %1) local_unnamed_addr #3 personality ptr @__gxx_personality_v0 {
  %3 = alloca %"class.cvc5::internal::Integer", align 8
  %4 = alloca %"class.cvc5::internal::Rational", align 8
  %5 = tail call noundef i32 @_ZNKSt7__cxx1112basic_stringIcSt11char_traitsIcESaIcEE7compareEPKc(ptr noundef nonnull align 8 dereferenceable(32) %1, ptr noundef nonnull @.str) #10
  %6 = icmp eq i32 %5, 0
  br i1 %6, label %10, label %7

7:                                                ; preds = %2
  %8 = tail call noundef i32 @_ZNKSt7__cxx1112basic_stringIcSt11char_traitsIcESaIcEE7compareEPKc(ptr noundef nonnull align 8 dereferenceable(32) %1, ptr noundef nonnull @.str.1) #10
  %9 = icmp eq i32 %8, 0
  br i1 %9, label %10, label %15

10:                                               ; preds = %7, %2
  %11 = load ptr, ptr %1, align 8, !tbaa !3
  %12 = getelementptr inbounds nuw i8, ptr %1, i64 8
  %13 = load i64, ptr %12, align 8, !tbaa !11
  %14 = tail call noundef nonnull align 8 dereferenceable(8) ptr @_ZSt16__ostream_insertIcSt11char_traitsIcEERSt13basic_ostreamIT_T0_ES6_PKS3_l(ptr noundef nonnull align 8 dereferenceable(8) %0, ptr noundef %11, i64 noundef %13)
  br label %59

15:                                               ; preds = %7
  call void @llvm.lifetime.start.p0(i64 16, ptr nonnull %3) #10
  invoke void @_ZN4cvc58internal7IntegerC1ERKNSt7__cxx1112basic_stringIcSt11char_traitsIcESaIcEEEj(ptr noundef nonnull align 8 dereferenceable(16) %3, ptr noundef nonnull align 8 dereferenceable(32) %1, i32 noundef 10)
          to label %16 unwind label %24

16:                                               ; preds = %15
  %17 = load ptr, ptr %1, align 8, !tbaa !3
  %18 = getelementptr inbounds nuw i8, ptr %1, i64 8
  %19 = load i64, ptr %18, align 8, !tbaa !11
  %20 = invoke noundef nonnull align 8 dereferenceable(8) ptr @_ZSt16__ostream_insertIcSt11char_traitsIcEERSt13basic_ostreamIT_T0_ES6_PKS3_l(ptr noundef nonnull align 8 dereferenceable(8) %0, ptr noundef %17, i64 noundef %19)
          to label %_ZStlsIcSt11char_traitsIcESaIcEERSt13basic_ostreamIT_T0_ES7_RKNSt7__cxx1112basic_stringIS4_S5_T1_EE.exit unwind label %26

_ZStlsIcSt11char_traitsIcESaIcEERSt13basic_ostreamIT_T0_ES7_RKNSt7__cxx1112basic_stringIS4_S5_T1_EE.exit: ; preds = %16
  invoke void @__gmpz_clear(ptr noundef nonnull align 8 dereferenceable(16) %3)
          to label %_ZN4cvc58internal7IntegerD2Ev.exit unwind label %21

21:                                               ; preds = %_ZStlsIcSt11char_traitsIcESaIcEERSt13basic_ostreamIT_T0_ES7_RKNSt7__cxx1112basic_stringIS4_S5_T1_EE.exit
  %22 = landingpad { ptr, i32 }
          catch ptr null
  %23 = extractvalue { ptr, i32 } %22, 0
  call void @__clang_call_terminate(ptr %23) #11
  unreachable

_ZN4cvc58internal7IntegerD2Ev.exit:               ; preds = %_ZStlsIcSt11char_traitsIcESaIcEERSt13basic_ostreamIT_T0_ES7_RKNSt7__cxx1112basic_stringIS4_S5_T1_EE.exit
  call void @llvm.lifetime.end.p0(i64 16, ptr nonnull %3) #10
  br label %59

24:                                               ; preds = %15
  %25 = landingpad { ptr, i32 }
          cleanup
          catch ptr @_ZTISt16invalid_argument
  br label %_ZN4cvc58internal7IntegerD2Ev.exit24

26:                                               ; preds = %16
  %27 = landingpad { ptr, i32 }
          cleanup
          catch ptr @_ZTISt16invalid_argument
  invoke void @__gmpz_clear(ptr noundef nonnull align 8 dereferenceable(16) %3)
          to label %_ZN4cvc58internal7IntegerD2Ev.exit24 unwind label %28

28:                                               ; preds = %26
  %29 = landingpad { ptr, i32 }
          catch ptr null
  %30 = extractvalue { ptr, i32 } %29, 0
  call void @__clang_call_terminate(ptr %30) #11
  unreachable

_ZN4cvc58internal7IntegerD2Ev.exit24:             ; preds = %26, %24
  %.pn = phi { ptr, i32 } [ %25, %24 ], [ %27, %26 ]
  %.017 = extractvalue { ptr, i32 } %.pn, 1
  call void @llvm.lifetime.end.p0(i64 16, ptr nonnull %3) #10
  %31 = call i32 @llvm.eh.typeid.for.p0(ptr nonnull @_ZTISt16invalid_argument) #10
  %32 = icmp eq i32 %.017, %31
  br i1 %32, label %33, label %60

33:                                               ; preds = %_ZN4cvc58internal7IntegerD2Ev.exit24
  %.0 = extractvalue { ptr, i32 } %.pn, 0
  %34 = call ptr @__cxa_begin_catch(ptr %.0) #10
  call void @__cxa_end_catch()
  call void @llvm.lifetime.start.p0(i64 32, ptr nonnull %4) #10
  invoke void @_ZN4cvc58internal8RationalC2ERKNSt7__cxx1112basic_stringIcSt11char_traitsIcESaIcEEEj(ptr noundef nonnull align 8 dereferenceable(32) %4, ptr noundef nonnull align 8 dereferenceable(32) %1, i32 noundef 10)
          to label %35 unwind label %43

35:                                               ; preds = %33
  %36 = load ptr, ptr %1, align 8, !tbaa !3
  %37 = getelementptr inbounds nuw i8, ptr %1, i64 8
  %38 = load i64, ptr %37, align 8, !tbaa !11
  %39 = invoke noundef nonnull align 8 dereferenceable(8) ptr @_ZSt16__ostream_insertIcSt11char_traitsIcEERSt13basic_ostreamIT_T0_ES6_PKS3_l(ptr noundef nonnull align 8 dereferenceable(8) %0, ptr noundef %36, i64 noundef %38)
          to label %_ZStlsIcSt11char_traitsIcESaIcEERSt13basic_ostreamIT_T0_ES7_RKNSt7__cxx1112basic_stringIS4_S5_T1_EE.exit25 unwind label %45

_ZStlsIcSt11char_traitsIcESaIcEERSt13basic_ostreamIT_T0_ES7_RKNSt7__cxx1112basic_stringIS4_S5_T1_EE.exit25: ; preds = %35
  invoke void @__gmpq_clear(ptr noundef nonnull align 8 dereferenceable(32) %4)
          to label %_ZN4cvc58internal8RationalD2Ev.exit unwind label %40

40:                                               ; preds = %_ZStlsIcSt11char_traitsIcESaIcEERSt13basic_ostreamIT_T0_ES7_RKNSt7__cxx1112basic_stringIS4_S5_T1_EE.exit25
  %41 = landingpad { ptr, i32 }
          catch ptr null
  %42 = extractvalue { ptr, i32 } %41, 0
  call void @__clang_call_terminate(ptr %42) #11
  unreachable

_ZN4cvc58internal8RationalD2Ev.exit:              ; preds = %_ZStlsIcSt11char_traitsIcESaIcEERSt13basic_ostreamIT_T0_ES7_RKNSt7__cxx1112basic_stringIS4_S5_T1_EE.exit25
  call void @llvm.lifetime.end.p0(i64 32, ptr nonnull %4) #10
  br label %59

43:                                               ; preds = %33
  %44 = landingpad { ptr, i32 }
          cleanup
          catch ptr @_ZTISt16invalid_argument
  br label %_ZN4cvc58internal8RationalD2Ev.exit26

45:                                               ; preds = %35
  %46 = landingpad { ptr, i32 }
          cleanup
          catch ptr @_ZTISt16invalid_argument
  invoke void @__gmpq_clear(ptr noundef nonnull align 8 dereferenceable(32) %4)
          to label %_ZN4cvc58internal8RationalD2Ev.exit26 unwind label %47

47:                                               ; preds = %45
  %48 = landingpad { ptr, i32 }
          catch ptr null
  %49 = extractvalue { ptr, i32 } %48, 0
  call void @__clang_call_terminate(ptr %49) #11
  unreachable

_ZN4cvc58internal8RationalD2Ev.exit26:            ; preds = %45, %43
  %.pn22 = phi { ptr, i32 } [ %44, %43 ], [ %46, %45 ]
  %.219 = extractvalue { ptr, i32 } %.pn22, 1
  call void @llvm.lifetime.end.p0(i64 32, ptr nonnull %4) #10
  %50 = icmp eq i32 %.219, %.017
  br i1 %50, label %51, label %60

51:                                               ; preds = %_ZN4cvc58internal8RationalD2Ev.exit26
  %.2 = extractvalue { ptr, i32 } %.pn22, 0
  %52 = call ptr @__cxa_begin_catch(ptr %.2) #10
  call void @__cxa_end_catch()
  %53 = call noundef nonnull align 8 dereferenceable(8) ptr @_ZSt16__ostream_insertIcSt11char_traitsIcEERSt13basic_ostreamIT_T0_ES6_PKS3_l(ptr noundef nonnull align 8 dereferenceable(8) %0, ptr noundef nonnull @.str.2, i64 noundef 1)
  %54 = load ptr, ptr %1, align 8, !tbaa !3
  %55 = getelementptr inbounds nuw i8, ptr %1, i64 8
  %56 = load i64, ptr %55, align 8, !tbaa !11
  %57 = call noundef nonnull align 8 dereferenceable(8) ptr @_ZSt16__ostream_insertIcSt11char_traitsIcEERSt13basic_ostreamIT_T0_ES6_PKS3_l(ptr noundef nonnull align 8 dereferenceable(8) %0, ptr noundef %54, i64 noundef %56)
  %58 = call noundef nonnull align 8 dereferenceable(8) ptr @_ZSt16__ostream_insertIcSt11char_traitsIcEERSt13basic_ostreamIT_T0_ES6_PKS3_l(ptr noundef nonnull align 8 dereferenceable(8) %57, ptr noundef nonnull @.str.2, i64 noundef 1)
  br label %59

59:                                               ; preds = %51, %_ZN4cvc58internal8RationalD2Ev.exit, %_ZN4cvc58internal7IntegerD2Ev.exit, %10
  ret void

60:                                               ; preds = %_ZN4cvc58internal8RationalD2Ev.exit26, %_ZN4cvc58internal7IntegerD2Ev.exit24
  %.merged = phi { ptr, i32 } [ %.pn22, %_ZN4cvc58internal8RationalD2Ev.exit26 ], [ %.pn, %_ZN4cvc58internal7IntegerD2Ev.exit24 ]
  resume { ptr, i32 } %.merged
}